; Function Attrs: mustprogress uwtable
define void @_ZN3gmx17CommandLineParserC2EPNS_7OptionsE(ptr nocapture noundef nonnull writeonly align 8 dereferenceable(8) %0, ptr noundef %1) unnamed_addr #0 align 2 personality ptr @__gxx_personality_v0 {
  %3 = tail call noalias noundef nonnull dereferenceable(16) ptr @_Znwm(i64 noundef 16) #19
  invoke void @_ZN3gmx17CommandLineParser4ImplC1EPNS_7OptionsE(ptr noundef nonnull align 8 dereferenceable(10) %3, ptr noundef %1)
          to label %4 unwind label %5

4:                                                ; preds = %2
  store ptr %3, ptr %0, align 8
  ret void

5:                                                ; preds = %2
  %6 = landingpad { ptr, i32 }
          cleanup
  tail call void @_ZdlPv(ptr noundef nonnull %3) #20
  resume { ptr, i32 } %6
}